target datalayout = "e-m:e-p270:32:32-p271:32:32-p272:64:64-i64:64-i128:128-f80:128-n8:16:32:64-S128"
target triple = "x86_64-pc-linux-gnu"

%struct.algorithm_data_st = type { ptr, i32, ptr, ptr, ptr, ptr, ptr, ptr }
%struct.ossl_algorithm_st = type { ptr, ptr, ptr, ptr }

; Function Attrs: nounwind uwtable
define internal i32 @algorithm_do_map(ptr noundef %0, ptr noundef %1, i32 noundef %2, i32 noundef %3, ptr noundef %4) #0 {
  %6 = alloca i32, align 4
  %7 = alloca ptr, align 8
  %8 = alloca ptr, align 8
  %9 = alloca i32, align 4
  %10 = alloca i32, align 4
  %11 = alloca ptr, align 8
  %12 = alloca ptr, align 8
  %13 = alloca i32, align 4
  %14 = alloca i32, align 4
  %15 = alloca ptr, align 8
  store ptr %0, ptr %7, align 8, !tbaa !10
  store ptr %1, ptr %8, align 8, !tbaa !24
  store i32 %2, ptr %9, align 4, !tbaa !8
  store i32 %3, ptr %10, align 4, !tbaa !8
  store ptr %4, ptr %11, align 8, !tbaa !12
  call void @llvm.lifetime.start.p0(i64 8, ptr %12) #6
  %16 = load ptr, ptr %11, align 8, !tbaa !12
  store ptr %16, ptr %12, align 8, !tbaa !22
  call void @llvm.lifetime.start.p0(i64 4, ptr %13) #6
  store i32 0, ptr %13, align 4, !tbaa !8
  %17 = load ptr, ptr %12, align 8, !tbaa !22
  %18 = getelementptr inbounds nuw %struct.algorithm_data_st, ptr %17, i32 0, i32 3
  %19 = load ptr, ptr %18, align 8, !tbaa !17
  %20 = load i32, ptr %10, align 4, !tbaa !8
  %21 = load ptr, ptr %12, align 8, !tbaa !22
  %22 = getelementptr inbounds nuw %struct.algorithm_data_st, ptr %21, i32 0, i32 7
  %23 = load ptr, ptr %22, align 8, !tbaa !21
  %24 = call i32 %19(i32 noundef %20, ptr noundef %23)
  %25 = icmp ne i32 %24, 0
  br i1 %25, label %27, label %26

26:                                               ; preds = %5
  store i32 -1, ptr %6, align 4
  store i32 1, ptr %14, align 4
  br label %105

27:                                               ; preds = %5
  %28 = load ptr, ptr %12, align 8, !tbaa !22
  %29 = getelementptr inbounds nuw %struct.algorithm_data_st, ptr %28, i32 0, i32 2
  %30 = load ptr, ptr %29, align 8, !tbaa !16
  %31 = icmp eq ptr %30, null
  br i1 %31, label %32, label %33

32:                                               ; preds = %27
  store i32 1, ptr %13, align 4, !tbaa !8
  br label %47

33:                                               ; preds = %27
  %34 = load ptr, ptr %12, align 8, !tbaa !22
  %35 = getelementptr inbounds nuw %struct.algorithm_data_st, ptr %34, i32 0, i32 2
  %36 = load ptr, ptr %35, align 8, !tbaa !16
  %37 = load ptr, ptr %7, align 8, !tbaa !10
  %38 = load i32, ptr %9, align 4, !tbaa !8
  %39 = load i32, ptr %10, align 4, !tbaa !8
  %40 = load ptr, ptr %12, align 8, !tbaa !22
  %41 = getelementptr inbounds nuw %struct.algorithm_data_st, ptr %40, i32 0, i32 7
  %42 = load ptr, ptr %41, align 8, !tbaa !21
  %43 = call i32 %36(ptr noundef %37, i32 noundef %38, i32 noundef %39, ptr noundef %42, ptr noundef %13)
  %44 = icmp ne i32 %43, 0
  br i1 %44, label %46, label %45

45:                                               ; preds = %33
  store i32 -1, ptr %13, align 4, !tbaa !8
  br label %96

46:                                               ; preds = %33
  br label %47

47:                                               ; preds = %46, %32
  %48 = load i32, ptr %13, align 4, !tbaa !8
  %49 = icmp eq i32 %48, 0
  br i1 %49, label %50, label %51

50:                                               ; preds = %47
  store i32 1, ptr %13, align 4, !tbaa !8
  br label %96

51:                                               ; preds = %47
  %52 = load ptr, ptr %8, align 8, !tbaa !24
  %53 = icmp ne ptr %52, null
  br i1 %53, label %54, label %75

54:                                               ; preds = %51
  call void @llvm.lifetime.start.p0(i64 8, ptr %15) #6
  %55 = load ptr, ptr %8, align 8, !tbaa !24
  store ptr %55, ptr %15, align 8, !tbaa !24
  br label %56

56:                                               ; preds = %71, %54
  %57 = load ptr, ptr %15, align 8, !tbaa !24
  %58 = getelementptr inbounds nuw %struct.ossl_algorithm_st, ptr %57, i32 0, i32 0
  %59 = load ptr, ptr %58, align 8, !tbaa !32
  %60 = icmp ne ptr %59, null
  br i1 %60, label %61, label %74

61:                                               ; preds = %56
  %62 = load ptr, ptr %12, align 8, !tbaa !22
  %63 = getelementptr inbounds nuw %struct.algorithm_data_st, ptr %62, i32 0, i32 4
  %64 = load ptr, ptr %63, align 8, !tbaa !18
  %65 = load ptr, ptr %7, align 8, !tbaa !10
  %66 = load ptr, ptr %15, align 8, !tbaa !24
  %67 = load i32, ptr %10, align 4, !tbaa !8
  %68 = load ptr, ptr %12, align 8, !tbaa !22
  %69 = getelementptr inbounds nuw %struct.algorithm_data_st, ptr %68, i32 0, i32 7
  %70 = load ptr, ptr %69, align 8, !tbaa !21
  call void %64(ptr noundef %65, ptr noundef %66, i32 noundef %67, ptr noundef %70)
  br label %71

71:                                               ; preds = %61
  %72 = load ptr, ptr %15, align 8, !tbaa !24
  %73 = getelementptr inbounds nuw %struct.ossl_algorithm_st, ptr %72, i32 1
  store ptr %73, ptr %15, align 8, !tbaa !24
  br label %56, !llvm.loop !35

74:                                               ; preds = %56
  call void @llvm.lifetime.end.p0(i64 8, ptr %15) #6
  br label %75

75:                                               ; preds = %74, %51
  %76 = load ptr, ptr %12, align 8, !tbaa !22
  %77 = getelementptr inbounds nuw %struct.algorithm_data_st, ptr %76, i32 0, i32 6
  %78 = load ptr, ptr %77, align 8, !tbaa !20
  %79 = icmp eq ptr %78, null
  br i1 %79, label %80, label %81

80:                                               ; preds = %75
  store i32 1, ptr %13, align 4, !tbaa !8
  br label %95

81:                                               ; preds = %75
  %82 = load ptr, ptr %12, align 8, !tbaa !22
  %83 = getelementptr inbounds nuw %struct.algorithm_data_st, ptr %82, i32 0, i32 6
  %84 = load ptr, ptr %83, align 8, !tbaa !20
  %85 = load ptr, ptr %7, align 8, !tbaa !10
  %86 = load i32, ptr %9, align 4, !tbaa !8
  %87 = load i32, ptr %10, align 4, !tbaa !8
  %88 = load ptr, ptr %12, align 8, !tbaa !22
  %89 = getelementptr inbounds nuw %struct.algorithm_data_st, ptr %88, i32 0, i32 7
  %90 = load ptr, ptr %89, align 8, !tbaa !21
  %91 = call i32 %84(ptr noundef %85, i32 noundef %86, i32 noundef %87, ptr noundef %90, ptr noundef %13)
  %92 = icmp ne i32 %91, 0
  br i1 %92, label %94, label %93

93:                                               ; preds = %81
  store i32 -1, ptr %13, align 4, !tbaa !8
  br label %94

94:                                               ; preds = %93, %81
  br label %95

95:                                               ; preds = %94, %80
  br label %96

96:                                               ; preds = %95, %50, %45
  %97 = load ptr, ptr %12, align 8, !tbaa !22
  %98 = getelementptr inbounds nuw %struct.algorithm_data_st, ptr %97, i32 0, i32 5
  %99 = load ptr, ptr %98, align 8, !tbaa !19
  %100 = load ptr, ptr %12, align 8, !tbaa !22
  %101 = getelementptr inbounds nuw %struct.algorithm_data_st, ptr %100, i32 0, i32 7
  %102 = load ptr, ptr %101, align 8, !tbaa !21
  %103 = call i32 %99(ptr noundef %102)
  %104 = load i32, ptr %13, align 4, !tbaa !8
  store i32 %104, ptr %6, align 4
  store i32 1, ptr %14, align 4
  br label %105

105:                                              ; preds = %96, %26
  call void @llvm.lifetime.end.p0(i64 4, ptr %13) #6
  call void @llvm.lifetime.end.p0(i64 8, ptr %12) #6
  %106 = load i32, ptr %6, align 4
  ret i32 %106
}

; Function Attrs: nounwind uwtable
define internal i32 @algorithm_do_this(ptr noundef %0, ptr noundef %1) #0 {
  %3 = alloca i32, align 4
  %4 = alloca ptr, align 8
  %5 = alloca ptr, align 8
  %6 = alloca ptr, align 8
  %7 = alloca i32, align 4
  %8 = alloca i32, align 4
  %9 = alloca i32, align 4
  %10 = alloca i32, align 4
  %11 = alloca i32, align 4
  %12 = alloca ptr, align 8
  %13 = alloca i32, align 4
  %14 = alloca i32, align 4
  store ptr %0, ptr %4, align 8, !tbaa !10
  store ptr %1, ptr %5, align 8, !tbaa !12
  call void @llvm.lifetime.start.p0(i64 8, ptr %6) #6
  %15 = load ptr, ptr %5, align 8, !tbaa !12
  store ptr %15, ptr %6, align 8, !tbaa !22
  call void @llvm.lifetime.start.p0(i64 4, ptr %7) #6
  store i32 1, ptr %7, align 4, !tbaa !8
  call void @llvm.lifetime.start.p0(i64 4, ptr %8) #6
  store i32 22, ptr %8, align 4, !tbaa !8
  call void @llvm.lifetime.start.p0(i64 4, ptr %9) #6
  call void @llvm.lifetime.start.p0(i64 4, ptr %10) #6
  store i32 1, ptr %10, align 4, !tbaa !8
  %16 = load ptr, ptr %6, align 8, !tbaa !22
  %17 = getelementptr inbounds nuw %struct.algorithm_data_st, ptr %16, i32 0, i32 1
  %18 = load i32, ptr %17, align 8, !tbaa !15
  %19 = icmp ne i32 %18, 0
  br i1 %19, label %20, label %24

20:                                               ; preds = %2
  %21 = load ptr, ptr %6, align 8, !tbaa !22
  %22 = getelementptr inbounds nuw %struct.algorithm_data_st, ptr %21, i32 0, i32 1
  %23 = load i32, ptr %22, align 8, !tbaa !15
  store i32 %23, ptr %8, align 4, !tbaa !8
  store i32 %23, ptr %7, align 4, !tbaa !8
  br label %24

24:                                               ; preds = %20, %2
  %25 = load i32, ptr %7, align 4, !tbaa !8
  store i32 %25, ptr %9, align 4, !tbaa !8
  br label %26

26:                                               ; preds = %54, %24
  %27 = load i32, ptr %9, align 4, !tbaa !8
  %28 = load i32, ptr %8, align 4, !tbaa !8
  %29 = icmp sle i32 %27, %28
  br i1 %29, label %30, label %57

30:                                               ; preds = %26
  call void @llvm.lifetime.start.p0(i64 4, ptr %11) #6
  store i32 0, ptr %11, align 4, !tbaa !8
  call void @llvm.lifetime.start.p0(i64 8, ptr %12) #6
  store ptr null, ptr %12, align 8, !tbaa !24
  call void @llvm.lifetime.start.p0(i64 4, ptr %13) #6
  store i32 0, ptr %13, align 4, !tbaa !8
  %31 = load ptr, ptr %4, align 8, !tbaa !10
  %32 = load i32, ptr %9, align 4, !tbaa !8
  %33 = call ptr @ossl_provider_query_operation(ptr noundef %31, i32 noundef %32, ptr noundef %11)
  store ptr %33, ptr %12, align 8, !tbaa !24
  %34 = load ptr, ptr %4, align 8, !tbaa !10
  %35 = load ptr, ptr %12, align 8, !tbaa !24
  %36 = load i32, ptr %9, align 4, !tbaa !8
  %37 = load i32, ptr %11, align 4, !tbaa !8
  %38 = load ptr, ptr %6, align 8, !tbaa !22
  %39 = call i32 @algorithm_do_map(ptr noundef %34, ptr noundef %35, i32 noundef %36, i32 noundef %37, ptr noundef %38)
  store i32 %39, ptr %13, align 4, !tbaa !8
  %40 = load ptr, ptr %4, align 8, !tbaa !10
  %41 = load i32, ptr %9, align 4, !tbaa !8
  %42 = load ptr, ptr %12, align 8, !tbaa !24
  call void @ossl_provider_unquery_operation(ptr noundef %40, i32 noundef %41, ptr noundef %42)
  %43 = load i32, ptr %13, align 4, !tbaa !8
  %44 = icmp slt i32 %43, 0
  br i1 %44, label %45, label %46

45:                                               ; preds = %30
  store i32 0, ptr %3, align 4
  store i32 1, ptr %14, align 4
  br label %51

46:                                               ; preds = %30
  %47 = load i32, ptr %13, align 4, !tbaa !8
  %48 = icmp ne i32 %47, 0
  br i1 %48, label %50, label %49

49:                                               ; preds = %46
  store i32 0, ptr %10, align 4, !tbaa !8
  br label %50

50:                                               ; preds = %49, %46
  store i32 0, ptr %14, align 4
  br label %51

51:                                               ; preds = %50, %45
  call void @llvm.lifetime.end.p0(i64 4, ptr %13) #6
  call void @llvm.lifetime.end.p0(i64 8, ptr %12) #6
  call void @llvm.lifetime.end.p0(i64 4, ptr %11) #6
  %52 = load i32, ptr %14, align 4
  switch i32 %52, label %59 [
    i32 0, label %53
  ]

53:                                               ; preds = %51
  br label %54

54:                                               ; preds = %53
  %55 = load i32, ptr %9, align 4, !tbaa !8
  %56 = add nsw i32 %55, 1
  store i32 %56, ptr %9, align 4, !tbaa !8
  br label %26, !llvm.loop !26

57:                                               ; preds = %26
  %58 = load i32, ptr %10, align 4, !tbaa !8
  store i32 %58, ptr %3, align 4
  store i32 1, ptr %14, align 4
  br label %59

59:                                               ; preds = %57, %51
  call void @llvm.lifetime.end.p0(i64 4, ptr %10) #6
  call void @llvm.lifetime.end.p0(i64 4, ptr %9) #6
  call void @llvm.lifetime.end.p0(i64 4, ptr %8) #6
  call void @llvm.lifetime.end.p0(i64 4, ptr %7) #6
  call void @llvm.lifetime.end.p0(i64 8, ptr %6) #6
  %60 = load i32, ptr %3, align 4
  ret i32 %60
}