; Function Attrs: nounwind uwtable
define internal range(i32 0, 2) i32 @algorithm_do_this(ptr noundef %0, ptr noundef readonly captures(none) %1) #0 {
  %3 = alloca i32, align 4
  %4 = alloca i32, align 4
  %5 = getelementptr inbounds nuw i8, ptr %1, i64 8
  %6 = load i32, ptr %5, align 8, !tbaa !10
  %.not = icmp eq i32 %6, 0
  %spec.select = tail call i32 @llvm.umax.i32(i32 %6, i32 1)
  %spec.select31 = select i1 %.not, i32 22, i32 %6
  %.not2942 = icmp sgt i32 %spec.select, %spec.select31
  br i1 %.not2942, label %.loopexit, label %.lr.ph

.lr.ph:                                           ; preds = %2
  %7 = getelementptr inbounds nuw i8, ptr %1, i64 24
  %8 = getelementptr inbounds nuw i8, ptr %1, i64 56
  %9 = getelementptr inbounds nuw i8, ptr %1, i64 16
  %10 = getelementptr inbounds nuw i8, ptr %1, i64 32
  %11 = getelementptr inbounds nuw i8, ptr %1, i64 48
  %12 = getelementptr inbounds nuw i8, ptr %1, i64 40
  br label %13

13:                                               ; preds = %.lr.ph, %43
  %.02145 = phi i32 [ 1, %.lr.ph ], [ %..021, %43 ]
  %.02443 = phi i32 [ %spec.select, %.lr.ph ], [ %44, %43 ]
  call void @llvm.lifetime.start.p0(i64 4, ptr nonnull %4) #5
  store i32 0, ptr %4, align 4, !tbaa !18
  %14 = call ptr @ossl_provider_query_operation(ptr noundef %0, i32 noundef %.02443, ptr noundef nonnull %4) #5
  %15 = load i32, ptr %4, align 4, !tbaa !18
  call void @llvm.lifetime.start.p0(i64 4, ptr nonnull %3) #5
  store i32 0, ptr %3, align 4, !tbaa !18
  %16 = load ptr, ptr %7, align 8, !tbaa !12
  %17 = load ptr, ptr %8, align 8, !tbaa !16
  %18 = call i32 %16(i32 noundef %15, ptr noundef %17) #5
  %.not.i = icmp eq i32 %18, 0
  br i1 %.not.i, label %.thread, label %19

.thread:                                          ; preds = %13
  call void @llvm.lifetime.end.p0(i64 4, ptr nonnull %3) #5
  call void @ossl_provider_unquery_operation(ptr noundef %0, i32 noundef %.02443, ptr noundef %14) #5
  br label %.thread36

19:                                               ; preds = %13
  %20 = load ptr, ptr %9, align 8, !tbaa !11
  %21 = icmp eq ptr %20, null
  br i1 %21, label %.thread.i, label %22

.thread.i:                                        ; preds = %19
  store i32 1, ptr %3, align 4, !tbaa !18
  br label %27

22:                                               ; preds = %19
  %23 = load ptr, ptr %8, align 8, !tbaa !16
  %24 = call i32 %20(ptr noundef %0, i32 noundef %.02443, i32 noundef %15, ptr noundef %23, ptr noundef nonnull %3) #5
  %.not31.i = icmp eq i32 %24, 0
  br i1 %.not31.i, label %.sink.split.i, label %25

25:                                               ; preds = %22
  %.pr.i = load i32, ptr %3, align 4, !tbaa !18
  %26 = icmp eq i32 %.pr.i, 0
  br i1 %26, label %.sink.split.i, label %27

27:                                               ; preds = %25, %.thread.i
  %.not32.i = icmp eq ptr %14, null
  br i1 %.not32.i, label %.loopexit.i, label %.preheader.i

.preheader.i:                                     ; preds = %27
  %28 = load ptr, ptr %14, align 8, !tbaa !19
  %.not3335.i = icmp eq ptr %28, null
  br i1 %.not3335.i, label %.loopexit.i, label %.lr.ph.i

.lr.ph.i:                                         ; preds = %.preheader.i, %.lr.ph.i
  %.036.i = phi ptr [ %31, %.lr.ph.i ], [ %14, %.preheader.i ]
  %29 = load ptr, ptr %10, align 8, !tbaa !13
  %30 = load ptr, ptr %8, align 8, !tbaa !16
  call void %29(ptr noundef %0, ptr noundef nonnull %.036.i, i32 noundef %15, ptr noundef %30) #5
  %31 = getelementptr inbounds nuw i8, ptr %.036.i, i64 32
  %32 = load ptr, ptr %31, align 8, !tbaa !19
  %.not33.i = icmp eq ptr %32, null
  br i1 %.not33.i, label %.loopexit.i, label %.lr.ph.i, !llvm.loop !23

.loopexit.i:                                      ; preds = %.lr.ph.i, %.preheader.i, %27
  %33 = load ptr, ptr %11, align 8, !tbaa !15
  %34 = icmp eq ptr %33, null
  br i1 %34, label %.sink.split.i, label %35

35:                                               ; preds = %.loopexit.i
  %36 = load ptr, ptr %8, align 8, !tbaa !16
  %37 = call i32 %33(ptr noundef %0, i32 noundef %.02443, i32 noundef %15, ptr noundef %36, ptr noundef nonnull %3) #5
  %.not34.i = icmp eq i32 %37, 0
  br i1 %.not34.i, label %.sink.split.i, label %algorithm_do_map.exit

.sink.split.i:                                    ; preds = %35, %.loopexit.i, %25, %22
  %.sink.i = phi i32 [ -1, %22 ], [ 1, %25 ], [ 1, %.loopexit.i ], [ -1, %35 ]
  store i32 %.sink.i, ptr %3, align 4, !tbaa !18
  br label %algorithm_do_map.exit

algorithm_do_map.exit:                            ; preds = %35, %.sink.split.i
  %38 = load ptr, ptr %12, align 8, !tbaa !14
  %39 = load ptr, ptr %8, align 8, !tbaa !16
  %40 = call i32 %38(ptr noundef %39) #5
  %41 = load i32, ptr %3, align 4, !tbaa !18
  %.fr = freeze i32 %41
  call void @llvm.lifetime.end.p0(i64 4, ptr nonnull %3) #5
  call void @ossl_provider_unquery_operation(ptr noundef %0, i32 noundef %.02443, ptr noundef %14) #5
  %42 = icmp sgt i32 %.fr, -1
  br i1 %42, label %43, label %.thread36

.thread36:                                        ; preds = %algorithm_do_map.exit, %.thread
  call void @llvm.lifetime.end.p0(i64 4, ptr nonnull %4) #5
  br label %.loopexit

43:                                               ; preds = %algorithm_do_map.exit
  %.not30 = icmp eq i32 %.fr, 0
  %..021 = select i1 %.not30, i32 0, i32 %.02145
  call void @llvm.lifetime.end.p0(i64 4, ptr nonnull %4) #5
  %44 = add i32 %.02443, 1
  %exitcond.not = icmp eq i32 %.02443, %spec.select31
  br i1 %exitcond.not, label %.loopexit, label %13, !llvm.loop !25

.loopexit:                                        ; preds = %43, %2, %.thread36
  %.2 = phi i32 [ 0, %.thread36 ], [ 1, %2 ], [ %..021, %43 ]
  ret i32 %.2
}